target datalayout = "e-m:e-p270:32:32-p271:32:32-p272:64:64-i64:64-i128:128-f80:128-n8:16:32:64-S128"
target triple = "x86_64-pc-linux-gnu"

%struct.SHAstate_st = type { i32, i32, i32, i32, i32, i32, i32, [16 x i32], i32 }

; Function Attrs: nounwind uwtable
define i32 @SHA1_Init(ptr noundef %0) #0 {
  %2 = alloca ptr, align 8
  store ptr %0, ptr %2, align 8, !tbaa !3
  %3 = load ptr, ptr %2, align 8, !tbaa !3
  call void @llvm.memset.p0.i64(ptr align 4 %3, i8 0, i64 96, i1 false)
  %4 = load ptr, ptr %2, align 8, !tbaa !3
  %5 = getelementptr inbounds nuw %struct.SHAstate_st, ptr %4, i32 0, i32 0
  store i32 1732584193, ptr %5, align 4, !tbaa !20
  %6 = load ptr, ptr %2, align 8, !tbaa !3
  %7 = getelementptr inbounds nuw %struct.SHAstate_st, ptr %6, i32 0, i32 1
  store i32 -271733879, ptr %7, align 4, !tbaa !21
  %8 = load ptr, ptr %2, align 8, !tbaa !3
  %9 = getelementptr inbounds nuw %struct.SHAstate_st, ptr %8, i32 0, i32 2
  store i32 -1732584194, ptr %9, align 4, !tbaa !22
  %10 = load ptr, ptr %2, align 8, !tbaa !3
  %11 = getelementptr inbounds nuw %struct.SHAstate_st, ptr %10, i32 0, i32 3
  store i32 271733878, ptr %11, align 4, !tbaa !23
  %12 = load ptr, ptr %2, align 8, !tbaa !3
  %13 = getelementptr inbounds nuw %struct.SHAstate_st, ptr %12, i32 0, i32 4
  store i32 -1009589776, ptr %13, align 4, !tbaa !24
  ret i32 1
}